; Function Attrs: nofree norecurse nosync nounwind memory(read, inaccessiblemem: none) uwtable
define range(i32 0, 2) i32 @Abc_NtkLatchIsSelfFeed_rec(ptr noundef readonly %0, ptr noundef readnone %1) local_unnamed_addr #0 {
  br label %tailrecurse

tailrecurse:                                      ; preds = %19, %2
  %.tr = phi ptr [ %0, %2 ], [ %25, %19 ]
  %.tr19 = phi ptr [ %1, %2 ], [ %.tr, %19 ]
  %3 = icmp eq ptr %.tr, %.tr19
  br i1 %3, label %28, label %4

4:                                                ; preds = %tailrecurse
  %.val = load ptr, ptr %.tr, align 8, !tbaa !3
  %5 = getelementptr i8, ptr %.tr, i64 32
  %.val9 = load ptr, ptr %5, align 8, !tbaa !13
  %6 = getelementptr i8, ptr %.val, i64 32
  %.val.val = load ptr, ptr %6, align 8, !tbaa !14
  %.val9.val = load i32, ptr %.val9, align 4, !tbaa !28
  %7 = getelementptr i8, ptr %.val.val, i64 8
  %.val.val.val = load ptr, ptr %7, align 8, !tbaa !29
  %8 = sext i32 %.val9.val to i64
  %9 = getelementptr inbounds ptr, ptr %.val.val.val, i64 %8
  %10 = load ptr, ptr %9, align 8, !tbaa !31
  %.val10 = load ptr, ptr %10, align 8, !tbaa !3
  %11 = getelementptr i8, ptr %10, i64 32
  %.val11 = load ptr, ptr %11, align 8, !tbaa !13
  %12 = getelementptr i8, ptr %.val10, i64 32
  %.val10.val = load ptr, ptr %12, align 8, !tbaa !14
  %.val11.val = load i32, ptr %.val11, align 4, !tbaa !28
  %13 = getelementptr i8, ptr %.val10.val, i64 8
  %.val10.val.val = load ptr, ptr %13, align 8, !tbaa !29
  %14 = sext i32 %.val11.val to i64
  %15 = getelementptr inbounds ptr, ptr %.val10.val.val, i64 %14
  %16 = load ptr, ptr %15, align 8, !tbaa !31
  %17 = getelementptr i8, ptr %16, i64 20
  %.val16 = load i32, ptr %17, align 4
  %18 = and i32 %.val16, 15
  %.not = icmp eq i32 %18, 5
  br i1 %.not, label %19, label %28

19:                                               ; preds = %4
  %.val12 = load ptr, ptr %16, align 8, !tbaa !3
  %20 = getelementptr i8, ptr %16, i64 32
  %.val13 = load ptr, ptr %20, align 8, !tbaa !13
  %21 = getelementptr i8, ptr %.val12, i64 32
  %.val12.val = load ptr, ptr %21, align 8, !tbaa !14
  %.val13.val = load i32, ptr %.val13, align 4, !tbaa !28
  %22 = getelementptr i8, ptr %.val12.val, i64 8
  %.val12.val.val = load ptr, ptr %22, align 8, !tbaa !29
  %23 = sext i32 %.val13.val to i64
  %24 = getelementptr inbounds ptr, ptr %.val12.val.val, i64 %23
  %25 = load ptr, ptr %24, align 8, !tbaa !31
  %26 = getelementptr i8, ptr %25, i64 20
  %.val17 = load i32, ptr %26, align 4
  %27 = and i32 %.val17, 15
  %.not18 = icmp eq i32 %27, 8
  br i1 %.not18, label %tailrecurse, label %28

28:                                               ; preds = %4, %19, %tailrecurse
  %.0 = phi i32 [ 1, %tailrecurse ], [ 0, %19 ], [ 0, %4 ]
  ret i32 %.0
}